target datalayout = "e-m:e-p270:32:32-p271:32:32-p272:64:64-i64:64-i128:128-f80:128-n8:16:32:64-S128"
target triple = "x86_64-pc-linux-gnu"

@proto_register_nlm.ett = internal global [2 x ptr] [ptr @ett_nlm, ptr @ett_nlm_lock], align 16
@.str.59 = private unnamed_addr constant [30 x i8] c"Network Lock Manager Protocol\00", align 1
@.str.60 = private unnamed_addr constant [4 x i8] c"NLM\00", align 1
@.str.61 = private unnamed_addr constant [4 x i8] c"nlm\00", align 1
@proto_nlm = internal global i32 0, align 4
@.str.62 = private unnamed_addr constant [17 x i8] c"msg_res_matching\00", align 1
@.str.63 = private unnamed_addr constant [36 x i8] c"Match MSG/RES packets for async NLM\00", align 1
@.str.64 = private unnamed_addr constant [82 x i8] c"Whether the dissector will track and match MSG and RES calls for asynchronous NLM\00", align 1
@nlm_match_msgres = internal global i8 0, align 1
@nlm_msg_res_unmatched = internal global ptr null, align 8
@nlm_msg_res_matched = internal global ptr null, align 8

; Function Attrs: null_pointer_is_valid sspstrong uwtable
define hidden void @proto_register_nlm() #0 {
  %1 = alloca ptr, align 8
  call void @llvm.lifetime.start.p0(i64 8, ptr %1) #8
  %2 = call i32 @proto_register_protocol(ptr noundef @.str.59, ptr noundef @.str.60, ptr noundef @.str.61)
  store i32 %2, ptr @proto_nlm, align 4
  %3 = load i32, ptr @proto_nlm, align 4
  call void @proto_register_field_array(i32 noundef %3, ptr noundef @proto_register_nlm.hf, i32 noundef 29)
  call void @proto_register_subtree_array(ptr noundef @proto_register_nlm.ett, i32 noundef 2)
  %4 = load i32, ptr @proto_nlm, align 4
  %5 = call ptr @prefs_register_protocol(i32 noundef %4, ptr noundef null)
  store ptr %5, ptr %1, align 8
  %6 = load ptr, ptr %1, align 8
  call void @prefs_register_bool_preference(ptr noundef %6, ptr noundef @.str.62, ptr noundef @.str.63, ptr noundef @.str.64, ptr noundef @nlm_match_msgres)
  %7 = call ptr @wmem_epan_scope()
  %8 = call ptr @wmem_file_scope()
  %9 = call noalias ptr @wmem_map_new_autoreset(ptr noundef %7, ptr noundef %8, ptr noundef @nlm_msg_res_unmatched_hash, ptr noundef @nlm_msg_res_unmatched_equal)
  store ptr %9, ptr @nlm_msg_res_unmatched, align 8
  %10 = call ptr @wmem_epan_scope()
  %11 = call ptr @wmem_file_scope()
  %12 = call noalias ptr @wmem_map_new_autoreset(ptr noundef %10, ptr noundef %11, ptr noundef @nlm_msg_res_matched_hash, ptr noundef @nlm_msg_res_matched_equal)
  store ptr %12, ptr @nlm_msg_res_matched, align 8
  call void @llvm.lifetime.end.p0(i64 8, ptr %1) #8
  ret void
}