; Function Attrs: null_pointer_is_valid sspstrong uwtable
define hidden void @proto_register_nlm() local_unnamed_addr #0 {
  %1 = tail call i32 @proto_register_protocol(ptr noundef nonnull @.str.59, ptr noundef nonnull @.str.60, ptr noundef nonnull @.str.61)
  store i32 %1, ptr @proto_nlm, align 4
  tail call void @proto_register_field_array(i32 noundef %1, ptr noundef nonnull @proto_register_nlm.hf, i32 noundef 29)
  tail call void @proto_register_subtree_array(ptr noundef nonnull @proto_register_nlm.ett, i32 noundef 2)
  %2 = load i32, ptr @proto_nlm, align 4
  %3 = tail call ptr @prefs_register_protocol(i32 noundef %2, ptr noundef null)
  tail call void @prefs_register_bool_preference(ptr noundef %3, ptr noundef nonnull @.str.62, ptr noundef nonnull @.str.63, ptr noundef nonnull @.str.64, ptr noundef nonnull @nlm_match_msgres)
  %4 = tail call ptr @wmem_epan_scope()
  %5 = tail call ptr @wmem_file_scope()
  %6 = tail call noalias ptr @wmem_map_new_autoreset(ptr noundef %4, ptr noundef %5, ptr noundef nonnull @nlm_msg_res_unmatched_hash, ptr noundef nonnull @nlm_msg_res_unmatched_equal)
  store ptr %6, ptr @nlm_msg_res_unmatched, align 8
  %7 = tail call ptr @wmem_epan_scope()
  %8 = tail call ptr @wmem_file_scope()
  %9 = tail call noalias ptr @wmem_map_new_autoreset(ptr noundef %7, ptr noundef %8, ptr noundef nonnull @nlm_msg_res_matched_hash, ptr noundef nonnull @nlm_msg_res_matched_equal)
  store ptr %9, ptr @nlm_msg_res_matched, align 8
  ret void
}